; Function Attrs: mustprogress uwtable
define void @_ZNK17FilterIONXSPlugin10filterNameEi(ptr dead_on_unwind noalias nocapture writable writeonly sret(%class.QString) align 8 %0, ptr nocapture noundef nonnull readnone align 8 dereferenceable(96) %1, i32 noundef %2) unnamed_addr #9 align 2 {
  switch i32 %2, label %8 [
    i32 0, label %4
    i32 1, label %6
  ]

4:                                                ; preds = %3
  %5 = tail call noundef ptr @_ZN7QString16fromAscii_helperEPKci(ptr noundef nonnull @.str.20, i32 noundef 9)
  br label %8

6:                                                ; preds = %3
  %7 = tail call noundef ptr @_ZN7QString16fromAscii_helperEPKci(ptr noundef nonnull @.str.21, i32 noundef 12)
  br label %8

8:                                                ; preds = %3, %6, %4
  %_ZN10QArrayData11shared_nullE.sink = phi ptr [ %7, %6 ], [ %5, %4 ], [ @_ZN10QArrayData11shared_nullE, %3 ]
  store ptr %_ZN10QArrayData11shared_nullE.sink, ptr %0, align 8
  ret void
}